target datalayout = "e-m:e-p270:32:32-p271:32:32-p272:64:64-i64:64-i128:128-f80:128-n8:16:32:64-S128"
target triple = "x86_64-pc-linux-gnu"

%struct.JumbleState = type { ptr, i64, ptr, i32, i32, i32 }
%struct.Query = type { i32, i32, i32, i64, i8, ptr, i32, i8, i8, i8, i8, i8, i8, i8, i8, i8, i8, i8, ptr, ptr, ptr, ptr, ptr, i32, ptr, ptr, i32, ptr, ptr, ptr, ptr, ptr, i8, ptr, ptr, ptr, ptr, ptr, ptr, ptr, i32, ptr, ptr, ptr, ptr, i32, i32 }

; Function Attrs: inlinehint nounwind uwtable
define internal i64 @UInt64GetDatum(i64 noundef %0) #4 {
  %2 = alloca i64, align 8
  store i64 %0, ptr %2, align 8
  %3 = load i64, ptr %2, align 8
  ret i64 %3
}

; Function Attrs: inlinehint nounwind uwtable
define internal i64 @DatumGetUInt64(i64 noundef %0) #4 {
  %2 = alloca i64, align 8
  store i64 %0, ptr %2, align 8
  %3 = load i64, ptr %2, align 8
  ret i64 %3
}

; Function Attrs: inlinehint nounwind uwtable
define internal i64 @hash_any_extended(ptr noundef %0, i32 noundef %1, i64 noundef %2) #4 {
  %4 = alloca ptr, align 8
  %5 = alloca i32, align 4
  %6 = alloca i64, align 8
  store ptr %0, ptr %4, align 8
  store i32 %1, ptr %5, align 4
  store i64 %2, ptr %6, align 8
  %7 = load ptr, ptr %4, align 8
  %8 = load i32, ptr %5, align 4
  %9 = load i64, ptr %6, align 8
  %10 = call i64 @hash_bytes_extended(ptr noundef %7, i32 noundef %8, i64 noundef %9)
  %11 = call i64 @UInt64GetDatum(i64 noundef %10)
  ret i64 %11
}

; Function Attrs: nounwind uwtable
define dso_local ptr @JumbleQuery(ptr noundef %0) #0 {
  %2 = alloca ptr, align 8
  %3 = alloca ptr, align 8
  store ptr %0, ptr %2, align 8
  call void @llvm.lifetime.start.p0(i64 8, ptr %3) #8
  store ptr null, ptr %3, align 8
  %4 = call ptr @palloc(i64 noundef 40)
  store ptr %4, ptr %3, align 8
  %5 = call ptr @palloc(i64 noundef 1024)
  %6 = load ptr, ptr %3, align 8
  %7 = getelementptr inbounds nuw %struct.JumbleState, ptr %6, i32 0, i32 0
  store ptr %5, ptr %7, align 8
  %8 = load ptr, ptr %3, align 8
  %9 = getelementptr inbounds nuw %struct.JumbleState, ptr %8, i32 0, i32 1
  store i64 0, ptr %9, align 8
  %10 = load ptr, ptr %3, align 8
  %11 = getelementptr inbounds nuw %struct.JumbleState, ptr %10, i32 0, i32 3
  store i32 32, ptr %11, align 8
  %12 = load ptr, ptr %3, align 8
  %13 = getelementptr inbounds nuw %struct.JumbleState, ptr %12, i32 0, i32 3
  %14 = load i32, ptr %13, align 8
  %15 = sext i32 %14 to i64
  %16 = mul i64 %15, 8
  %17 = call ptr @palloc(i64 noundef %16)
  %18 = load ptr, ptr %3, align 8
  %19 = getelementptr inbounds nuw %struct.JumbleState, ptr %18, i32 0, i32 2
  store ptr %17, ptr %19, align 8
  %20 = load ptr, ptr %3, align 8
  %21 = getelementptr inbounds nuw %struct.JumbleState, ptr %20, i32 0, i32 4
  store i32 0, ptr %21, align 4
  %22 = load ptr, ptr %3, align 8
  %23 = getelementptr inbounds nuw %struct.JumbleState, ptr %22, i32 0, i32 5
  store i32 0, ptr %23, align 8
  %24 = load ptr, ptr %3, align 8
  %25 = load ptr, ptr %2, align 8
  call void @_jumbleNode(ptr noundef %24, ptr noundef %25)
  %26 = load ptr, ptr %3, align 8
  %27 = getelementptr inbounds nuw %struct.JumbleState, ptr %26, i32 0, i32 0
  %28 = load ptr, ptr %27, align 8
  %29 = load ptr, ptr %3, align 8
  %30 = getelementptr inbounds nuw %struct.JumbleState, ptr %29, i32 0, i32 1
  %31 = load i64, ptr %30, align 8
  %32 = trunc i64 %31 to i32
  %33 = call i64 @hash_any_extended(ptr noundef %28, i32 noundef %32, i64 noundef 0)
  %34 = call i64 @DatumGetUInt64(i64 noundef %33)
  %35 = load ptr, ptr %2, align 8
  %36 = getelementptr inbounds nuw %struct.Query, ptr %35, i32 0, i32 3
  store i64 %34, ptr %36, align 8
  %37 = load ptr, ptr %2, align 8
  %38 = getelementptr inbounds nuw %struct.Query, ptr %37, i32 0, i32 3
  %39 = load i64, ptr %38, align 8
  %40 = icmp eq i64 %39, 0
  br i1 %40, label %41, label %53

41:                                               ; preds = %1
  %42 = load ptr, ptr %2, align 8
  %43 = getelementptr inbounds nuw %struct.Query, ptr %42, i32 0, i32 5
  %44 = load ptr, ptr %43, align 8
  %45 = icmp ne ptr %44, null
  br i1 %45, label %46, label %49

46:                                               ; preds = %41
  %47 = load ptr, ptr %2, align 8
  %48 = getelementptr inbounds nuw %struct.Query, ptr %47, i32 0, i32 3
  store i64 2, ptr %48, align 8
  br label %52

49:                                               ; preds = %41
  %50 = load ptr, ptr %2, align 8
  %51 = getelementptr inbounds nuw %struct.Query, ptr %50, i32 0, i32 3
  store i64 1, ptr %51, align 8
  br label %52

52:                                               ; preds = %49, %46
  br label %53

53:                                               ; preds = %52, %1
  %54 = load ptr, ptr %3, align 8
  call void @llvm.lifetime.end.p0(i64 8, ptr %3) #8
  ret ptr %54
}