; Function Attrs: nounwind uwtable
define dso_local ptr @JumbleQuery(ptr noundef %0) local_unnamed_addr #0 {
  %2 = tail call ptr @palloc(i64 noundef 40) #9
  %3 = tail call ptr @palloc(i64 noundef 1024) #9
  store ptr %3, ptr %2, align 8
  %4 = getelementptr inbounds nuw i8, ptr %2, i64 8
  store i64 0, ptr %4, align 8
  %5 = getelementptr inbounds nuw i8, ptr %2, i64 24
  store i32 32, ptr %5, align 8
  %6 = tail call ptr @palloc(i64 noundef 256) #9
  %7 = getelementptr inbounds nuw i8, ptr %2, i64 16
  store ptr %6, ptr %7, align 8
  %8 = getelementptr inbounds nuw i8, ptr %2, i64 28
  store i32 0, ptr %8, align 4
  %9 = getelementptr inbounds nuw i8, ptr %2, i64 32
  store i32 0, ptr %9, align 8
  tail call fastcc void @_jumbleNode(ptr noundef nonnull %2, ptr noundef %0)
  %10 = load ptr, ptr %2, align 8
  %11 = load i64, ptr %4, align 8
  %12 = trunc i64 %11 to i32
  %13 = tail call i64 @hash_bytes_extended(ptr noundef %10, i32 noundef %12, i64 noundef 0) #9
  %14 = getelementptr inbounds nuw i8, ptr %0, i64 16
  store i64 %13, ptr %14, align 8
  %15 = icmp eq i64 %13, 0
  br i1 %15, label %.sink.split, label %18

.sink.split:                                      ; preds = %1
  %16 = getelementptr inbounds nuw i8, ptr %0, i64 32
  %17 = load ptr, ptr %16, align 8
  %.not = icmp eq ptr %17, null
  %. = select i1 %.not, i64 1, i64 2
  store i64 %., ptr %14, align 8
  br label %18

18:                                               ; preds = %.sink.split, %1
  ret ptr %2
}